target datalayout = "e-m:e-p270:32:32-p271:32:32-p272:64:64-i64:64-i128:128-f80:128-n8:16:32:64-S128"
target triple = "x86_64-pc-linux-gnu"

%"class.datalog::table_signature" = type <{ %"class.datalog::tr_infrastructure<datalog::table_traits>::signature_base", i32, [4 x i8] }>
%"class.datalog::tr_infrastructure<datalog::table_traits>::signature_base" = type { %class.svector.134 }
%class.svector.134 = type { %class.vector.135 }
%class.vector.135 = type { ptr }
%"class.datalog::tr_infrastructure<datalog::table_traits>::base_ancestor" = type <{ ptr, ptr, %"class.datalog::table_signature", i32, [4 x i8] }>

; Function Attrs: mustprogress nounwind uwtable
define linkonce_odr hidden noundef nonnull align 8 dereferenceable(32) ptr @_ZNK7datalog17tr_infrastructureINS_12table_traitsEE13base_ancestor10get_pluginEv(ptr noundef nonnull align 8 dereferenceable(36) %0) #4 comdat align 2 {
  %2 = alloca ptr, align 8
  store ptr %0, ptr %2, align 8, !tbaa !377
  %3 = load ptr, ptr %2, align 8
  %4 = getelementptr inbounds nuw %"class.datalog::tr_infrastructure<datalog::table_traits>::base_ancestor", ptr %3, i32 0, i32 1
  %5 = load ptr, ptr %4, align 8, !tbaa !379
  ret ptr %5
}

; Function Attrs: mustprogress uwtable
define hidden noundef ptr @_ZN7datalog16relation_manager28mk_filter_by_negated_join_fnERKNS_10table_baseES3_S3_RK7svectorIjjES7_S7_S7_(ptr noundef nonnull align 8 dereferenceable(200) %0, ptr noundef nonnull align 8 dereferenceable(36) %1, ptr noundef nonnull align 8 dereferenceable(36) %2, ptr noundef nonnull align 8 dereferenceable(36) %3, ptr noundef nonnull align 8 dereferenceable(8) %4, ptr noundef nonnull align 8 dereferenceable(8) %5, ptr noundef nonnull align 8 dereferenceable(8) %6, ptr noundef nonnull align 8 dereferenceable(8) %7) #5 align 2 {
  %9 = alloca ptr, align 8
  %10 = alloca ptr, align 8
  %11 = alloca ptr, align 8
  %12 = alloca ptr, align 8
  %13 = alloca ptr, align 8
  %14 = alloca ptr, align 8
  %15 = alloca ptr, align 8
  %16 = alloca ptr, align 8
  store ptr %0, ptr %9, align 8, !tbaa !3
  store ptr %1, ptr %10, align 8, !tbaa !375
  store ptr %2, ptr %11, align 8, !tbaa !375
  store ptr %3, ptr %12, align 8, !tbaa !375
  store ptr %4, ptr %13, align 8, !tbaa !480
  store ptr %5, ptr %14, align 8, !tbaa !480
  store ptr %6, ptr %15, align 8, !tbaa !480
  store ptr %7, ptr %16, align 8, !tbaa !480
  %17 = load ptr, ptr %10, align 8, !tbaa !375
  %18 = call noundef nonnull align 8 dereferenceable(32) ptr @_ZNK7datalog17tr_infrastructureINS_12table_traitsEE13base_ancestor10get_pluginEv(ptr noundef nonnull align 8 dereferenceable(36) %17)
  %19 = load ptr, ptr %10, align 8, !tbaa !375
  %20 = load ptr, ptr %11, align 8, !tbaa !375
  %21 = load ptr, ptr %12, align 8, !tbaa !375
  %22 = load ptr, ptr %13, align 8, !tbaa !480
  %23 = load ptr, ptr %14, align 8, !tbaa !480
  %24 = load ptr, ptr %15, align 8, !tbaa !480
  %25 = load ptr, ptr %16, align 8, !tbaa !480
  %26 = load ptr, ptr %18, align 8, !tbaa !8
  %27 = getelementptr inbounds ptr, ptr %26, i64 24
  %28 = load ptr, ptr %27, align 8
  %29 = call noundef ptr %28(ptr noundef nonnull align 8 dereferenceable(32) %18, ptr noundef nonnull align 8 dereferenceable(36) %19, ptr noundef nonnull align 8 dereferenceable(36) %20, ptr noundef nonnull align 8 dereferenceable(36) %21, ptr noundef nonnull align 8 dereferenceable(8) %22, ptr noundef nonnull align 8 dereferenceable(8) %23, ptr noundef nonnull align 8 dereferenceable(8) %24, ptr noundef nonnull align 8 dereferenceable(8) %25)
  ret ptr %29
}